target datalayout = "e-m:e-p270:32:32-p271:32:32-p272:64:64-i64:64-i128:128-f80:128-n8:16:32:64-S128"
target triple = "x86_64-pc-linux-gnu"

%struct.pmix_class_t = type { ptr, ptr, ptr, ptr, i32, i32, ptr, ptr, i64 }
%struct.pmix_list_t = type { %struct.pmix_object_t, %struct.pmix_list_item_t, i64 }
%struct.pmix_object_t = type { %union.pthread_mutex_t, ptr, i32, %struct.pmix_tma }
%union.pthread_mutex_t = type { %struct.__pthread_mutex_s }
%struct.__pthread_mutex_s = type { i32, i32, i32, i32, i32, i16, i16, %struct.__pthread_internal_list }
%struct.__pthread_internal_list = type { ptr, ptr }
%struct.pmix_tma = type { ptr, ptr, ptr, ptr, ptr, ptr, ptr, ptr }
%struct.pmix_list_item_t = type { %struct.pmix_object_t, ptr, ptr, i32 }
%struct.timeval = type { i64, i64 }
%struct.pmix_psensor_heartbeat_component_t = type { %struct.pmix_mca_base_component_2_1_0_t, i8, %struct.pmix_list_t }
%struct.pmix_mca_base_component_2_1_0_t = type { i32, i32, i32, [16 x i8], i32, i32, i32, [32 x i8], i32, i32, i32, [64 x i8], i32, i32, i32, ptr, ptr, ptr, ptr, [32 x i8] }
%struct.event = type { %struct.event_callback, %union.anon.0, i32, ptr, %union.anon.2, i16, i16, %struct.timeval }
%struct.event_callback = type { %struct.anon, i16, i8, i8, %union.anon, ptr }
%struct.anon = type { ptr, ptr }
%union.anon = type { ptr }
%union.anon.0 = type { %struct.anon.1 }
%struct.anon.1 = type { ptr, ptr }
%union.anon.2 = type { %struct.anon.3 }
%struct.anon.3 = type { %struct.anon.4, %struct.timeval }
%struct.anon.4 = type { ptr, ptr }
%struct.pmix_heartbeat_trkr_t = type { %struct.pmix_list_item_t, ptr, ptr, i8, %struct.event, %struct.event, %struct.timeval, i32, i32, i32, i32, i8, ptr, i64, i8 }
%struct.pmix_psensor_beat_t = type { %struct.pmix_object_t, %struct.event, ptr }

@pmix_mca_psensor_heartbeat_component = external global %struct.pmix_psensor_heartbeat_component_t, align 8
@.str.13 = private unnamed_addr constant [21 x i8] c"pthread_mutex_lock()\00", align 1

; Function Attrs: inlinehint nounwind uwtable
define internal void @pmix_tma_free(ptr noundef %0, ptr noundef %1) #2 {
  %3 = alloca ptr, align 8
  %4 = alloca ptr, align 8
  store ptr %0, ptr %3, align 8, !tbaa !95
  store ptr %1, ptr %4, align 8, !tbaa !57
  %5 = load ptr, ptr %3, align 8, !tbaa !95
  %6 = icmp ne ptr null, %5
  br i1 %6, label %7, label %13

7:                                                ; preds = %2
  %8 = load ptr, ptr %3, align 8, !tbaa !95
  %9 = getelementptr inbounds nuw %struct.pmix_tma, ptr %8, i32 0, i32 5
  %10 = load ptr, ptr %9, align 8, !tbaa !115
  %11 = load ptr, ptr %3, align 8, !tbaa !95
  %12 = load ptr, ptr %4, align 8, !tbaa !57
  call void %10(ptr noundef %11, ptr noundef %12)
  br label %15

13:                                               ; preds = %2
  %14 = load ptr, ptr %4, align 8, !tbaa !57
  call void @free(ptr noundef %14) #11
  br label %15

15:                                               ; preds = %13, %7
  ret void
}

; Function Attrs: inlinehint nounwind uwtable
define internal void @pmix_obj_run_destructors(ptr noundef %0) #2 {
  %2 = alloca ptr, align 8
  %3 = alloca ptr, align 8
  store ptr %0, ptr %2, align 8, !tbaa !67
  call void @llvm.lifetime.start.p0(i64 8, ptr %3) #11
  %4 = load ptr, ptr %2, align 8, !tbaa !67
  %5 = getelementptr inbounds nuw %struct.pmix_object_t, ptr %4, i32 0, i32 1
  %6 = load ptr, ptr %5, align 8, !tbaa !100
  %7 = getelementptr inbounds nuw %struct.pmix_class_t, ptr %6, i32 0, i32 7
  %8 = load ptr, ptr %7, align 8, !tbaa !113
  store ptr %8, ptr %3, align 8, !tbaa !57
  br label %9

9:                                                ; preds = %13, %1
  %10 = load ptr, ptr %3, align 8, !tbaa !57
  %11 = load ptr, ptr %10, align 8, !tbaa !57
  %12 = icmp ne ptr null, %11
  br i1 %12, label %13, label %19

13:                                               ; preds = %9
  %14 = load ptr, ptr %3, align 8, !tbaa !57
  %15 = load ptr, ptr %14, align 8, !tbaa !57
  %16 = load ptr, ptr %2, align 8, !tbaa !67
  call void %15(ptr noundef %16)
  %17 = load ptr, ptr %3, align 8, !tbaa !57
  %18 = getelementptr inbounds nuw ptr, ptr %17, i32 1
  store ptr %18, ptr %3, align 8, !tbaa !57
  br label %9, !llvm.loop !114

19:                                               ; preds = %9
  call void @llvm.lifetime.end.p0(i64 8, ptr %3) #11
  ret void
}

; Function Attrs: alwaysinline nounwind uwtable
define internal i32 @pmix_obj_update(ptr noundef %0, i32 noundef %1) #3 {
  %3 = alloca ptr, align 8
  %4 = alloca i32, align 4
  %5 = alloca i32, align 4
  store ptr %0, ptr %3, align 8, !tbaa !67
  store i32 %1, ptr %4, align 4, !tbaa !8
  call void @llvm.lifetime.start.p0(i64 4, ptr %5) #11
  %6 = load ptr, ptr %3, align 8, !tbaa !67
  %7 = getelementptr inbounds nuw %struct.pmix_object_t, ptr %6, i32 0, i32 0
  %8 = call i32 @pthread_mutex_lock(ptr noundef %7) #11
  store i32 %8, ptr %5, align 4, !tbaa !8
  %9 = load i32, ptr %5, align 4, !tbaa !8
  %10 = icmp eq i32 %9, 35
  br i1 %10, label %11, label %14

11:                                               ; preds = %2
  %12 = load i32, ptr %5, align 4, !tbaa !8
  %13 = call ptr @__errno_location() #13
  store i32 %12, ptr %13, align 4, !tbaa !8
  call void @perror(ptr noundef @.str.13)
  call void @abort() #14
  unreachable

14:                                               ; preds = %2
  %15 = load i32, ptr %4, align 4, !tbaa !8
  %16 = load ptr, ptr %3, align 8, !tbaa !67
  %17 = getelementptr inbounds nuw %struct.pmix_object_t, ptr %16, i32 0, i32 2
  %18 = load i32, ptr %17, align 8, !tbaa !101
  %19 = add nsw i32 %18, %15
  store i32 %19, ptr %17, align 8, !tbaa !101
  store i32 %19, ptr %5, align 4, !tbaa !8
  %20 = load ptr, ptr %3, align 8, !tbaa !67
  %21 = getelementptr inbounds nuw %struct.pmix_object_t, ptr %20, i32 0, i32 0
  %22 = call i32 @pthread_mutex_unlock(ptr noundef %21) #11
  %23 = load i32, ptr %5, align 4, !tbaa !8
  call void @llvm.lifetime.end.p0(i64 4, ptr %5) #11
  ret i32 %23
}

; Function Attrs: inlinehint nounwind uwtable
define internal void @pmix_atomic_rmb() #2 {
  fence acquire
  ret void
}

; Function Attrs: nounwind uwtable
define internal void @add_beat(i32 noundef %0, i16 noundef signext %1, ptr noundef %2) #0 {
  %4 = alloca i32, align 4
  %5 = alloca i16, align 2
  %6 = alloca ptr, align 8
  %7 = alloca ptr, align 8
  %8 = alloca ptr, align 8
  %9 = alloca ptr, align 8
  store i32 %0, ptr %4, align 4, !tbaa !8
  store i16 %1, ptr %5, align 2, !tbaa !109
  store ptr %2, ptr %6, align 8, !tbaa !57
  call void @llvm.lifetime.start.p0(i64 8, ptr %7) #11
  %10 = load ptr, ptr %6, align 8, !tbaa !57
  store ptr %10, ptr %7, align 8, !tbaa !57
  call void @llvm.lifetime.start.p0(i64 8, ptr %8) #11
  call void @pmix_atomic_rmb()
  %11 = load ptr, ptr getelementptr inbounds nuw (%struct.pmix_list_item_t, ptr getelementptr inbounds nuw (%struct.pmix_list_t, ptr getelementptr inbounds nuw (%struct.pmix_psensor_heartbeat_component_t, ptr @pmix_mca_psensor_heartbeat_component, i32 0, i32 2), i32 0, i32 1), i32 0, i32 1), align 8, !tbaa !110
  store ptr %11, ptr %8, align 8, !tbaa !57
  br label %12

12:                                               ; preds = %31, %3
  %13 = load ptr, ptr %8, align 8, !tbaa !57
  %14 = icmp ne ptr %13, getelementptr inbounds nuw (%struct.pmix_list_t, ptr getelementptr inbounds nuw (%struct.pmix_psensor_heartbeat_component_t, ptr @pmix_mca_psensor_heartbeat_component, i32 0, i32 2), i32 0, i32 1)
  br i1 %14, label %15, label %35

15:                                               ; preds = %12
  %16 = load ptr, ptr %8, align 8, !tbaa !57
  %17 = getelementptr inbounds nuw %struct.pmix_heartbeat_trkr_t, ptr %16, i32 0, i32 1
  %18 = load ptr, ptr %17, align 8, !tbaa !58
  %19 = load ptr, ptr %7, align 8, !tbaa !57
  %20 = getelementptr inbounds nuw %struct.pmix_psensor_beat_t, ptr %19, i32 0, i32 2
  %21 = load ptr, ptr %20, align 8, !tbaa !92
  %22 = icmp eq ptr %18, %21
  br i1 %22, label %23, label %30

23:                                               ; preds = %15
  %24 = load ptr, ptr %8, align 8, !tbaa !57
  %25 = getelementptr inbounds nuw %struct.pmix_heartbeat_trkr_t, ptr %24, i32 0, i32 7
  %26 = load i32, ptr %25, align 8, !tbaa !87
  %27 = add i32 %26, 1
  store i32 %27, ptr %25, align 8, !tbaa !87
  %28 = load ptr, ptr %8, align 8, !tbaa !57
  %29 = getelementptr inbounds nuw %struct.pmix_heartbeat_trkr_t, ptr %28, i32 0, i32 14
  store i8 0, ptr %29, align 8, !tbaa !91
  br label %35

30:                                               ; preds = %15
  br label %31

31:                                               ; preds = %30
  %32 = load ptr, ptr %8, align 8, !tbaa !57
  %33 = getelementptr inbounds nuw %struct.pmix_list_item_t, ptr %32, i32 0, i32 1
  %34 = load ptr, ptr %33, align 8, !tbaa !111
  store ptr %34, ptr %8, align 8, !tbaa !57
  br label %12, !llvm.loop !112

35:                                               ; preds = %23, %12
  br label %36

36:                                               ; preds = %35
  call void @llvm.lifetime.start.p0(i64 8, ptr %9) #11
  %37 = load ptr, ptr %7, align 8, !tbaa !57
  store ptr %37, ptr %9, align 8, !tbaa !67
  %38 = load ptr, ptr %9, align 8, !tbaa !67
  %39 = call i32 @pmix_obj_update(ptr noundef %38, i32 noundef -1)
  %40 = icmp eq i32 0, %39
  br i1 %40, label %41, label %55

41:                                               ; preds = %36
  %42 = load ptr, ptr %9, align 8, !tbaa !67
  call void @pmix_obj_run_destructors(ptr noundef %42)
  %43 = load ptr, ptr %9, align 8, !tbaa !67
  %44 = getelementptr inbounds nuw %struct.pmix_object_t, ptr %43, i32 0, i32 3
  %45 = getelementptr inbounds nuw %struct.pmix_tma, ptr %44, i32 0, i32 5
  %46 = load ptr, ptr %45, align 8, !tbaa !69
  %47 = icmp ne ptr null, %46
  br i1 %47, label %48, label %52

48:                                               ; preds = %41
  %49 = load ptr, ptr %9, align 8, !tbaa !67
  %50 = getelementptr inbounds nuw %struct.pmix_object_t, ptr %49, i32 0, i32 3
  %51 = load ptr, ptr %7, align 8, !tbaa !57
  call void @pmix_tma_free(ptr noundef %50, ptr noundef %51)
  br label %54

52:                                               ; preds = %41
  %53 = load ptr, ptr %7, align 8, !tbaa !57
  call void @free(ptr noundef %53) #11
  br label %54

54:                                               ; preds = %52, %48
  store ptr null, ptr %7, align 8, !tbaa !57
  br label %55

55:                                               ; preds = %54, %36
  call void @llvm.lifetime.end.p0(i64 8, ptr %9) #11
  br label %56

56:                                               ; preds = %55
  br label %57

57:                                               ; preds = %56
  call void @llvm.lifetime.end.p0(i64 8, ptr %8) #11
  call void @llvm.lifetime.end.p0(i64 8, ptr %7) #11
  ret void
}