; Function Attrs: nounwind uwtable
define internal void @add_beat(i32 %0, i16 signext %1, ptr noundef %2) #0 {
  fence acquire
  %.017 = load ptr, ptr getelementptr inbounds nuw (i8, ptr @pmix_mca_psensor_heartbeat_component, i64 472), align 8, !tbaa !82
  %.not18 = icmp eq ptr %.017, getelementptr inbounds nuw (i8, ptr @pmix_mca_psensor_heartbeat_component, i64 352)
  br i1 %.not18, label %.loopexit, label %.lr.ph

.lr.ph:                                           ; preds = %3
  %4 = getelementptr inbounds nuw i8, ptr %2, i64 248
  %5 = load ptr, ptr %4, align 8, !tbaa !94
  br label %6

6:                                                ; preds = %.lr.ph, %15
  %.019 = phi ptr [ %.017, %.lr.ph ], [ %.0, %15 ]
  %7 = getelementptr inbounds nuw i8, ptr %.019, i64 144
  %8 = load ptr, ptr %7, align 8, !tbaa !62
  %9 = icmp eq ptr %8, %5
  br i1 %9, label %10, label %15

10:                                               ; preds = %6
  %11 = getelementptr inbounds nuw i8, ptr %.019, i64 440
  %12 = load i32, ptr %11, align 8, !tbaa !96
  %13 = add i32 %12, 1
  store i32 %13, ptr %11, align 8, !tbaa !96
  %14 = getelementptr inbounds nuw i8, ptr %.019, i64 480
  store i8 0, ptr %14, align 8, !tbaa !97
  br label %.loopexit

15:                                               ; preds = %6
  %16 = getelementptr inbounds nuw i8, ptr %.019, i64 120
  %.0 = load ptr, ptr %16, align 8, !tbaa !82
  %.not = icmp eq ptr %.0, getelementptr inbounds nuw (i8, ptr @pmix_mca_psensor_heartbeat_component, i64 352)
  br i1 %.not, label %.loopexit, label %6, !llvm.loop !98

.loopexit:                                        ; preds = %15, %3, %10
  %17 = tail call i32 @pthread_mutex_lock(ptr noundef %2) #13
  %18 = icmp eq i32 %17, 35
  br i1 %18, label %19, label %pmix_obj_update.exit

19:                                               ; preds = %.loopexit
  %20 = tail call ptr @__errno_location() #16
  store i32 35, ptr %20, align 4, !tbaa !54
  tail call void @perror(ptr noundef nonnull @.str.13) #17
  tail call void @abort() #18
  unreachable

pmix_obj_update.exit:                             ; preds = %.loopexit
  %21 = getelementptr inbounds nuw i8, ptr %2, i64 48
  %22 = load i32, ptr %21, align 8, !tbaa !57
  %23 = add nsw i32 %22, -1
  store i32 %23, ptr %21, align 8, !tbaa !57
  %24 = tail call i32 @pthread_mutex_unlock(ptr noundef %2) #13
  %25 = icmp eq i32 %23, 0
  br i1 %25, label %26, label %40

26:                                               ; preds = %pmix_obj_update.exit
  %27 = getelementptr inbounds nuw i8, ptr %2, i64 40
  %28 = load ptr, ptr %27, align 8, !tbaa !56
  %29 = getelementptr inbounds nuw i8, ptr %28, i64 48
  %30 = load ptr, ptr %29, align 8, !tbaa !71
  %31 = load ptr, ptr %30, align 8, !tbaa !59
  %.not6.i = icmp eq ptr %31, null
  br i1 %.not6.i, label %pmix_obj_run_destructors.exit, label %.lr.ph.i

.lr.ph.i:                                         ; preds = %26, %.lr.ph.i
  %32 = phi ptr [ %34, %.lr.ph.i ], [ %31, %26 ]
  %.07.i = phi ptr [ %33, %.lr.ph.i ], [ %30, %26 ]
  tail call void %32(ptr noundef %2) #13
  %33 = getelementptr inbounds nuw i8, ptr %.07.i, i64 8
  %34 = load ptr, ptr %33, align 8, !tbaa !59
  %.not.i = icmp eq ptr %34, null
  br i1 %.not.i, label %pmix_obj_run_destructors.exit, label %.lr.ph.i, !llvm.loop !72

pmix_obj_run_destructors.exit:                    ; preds = %.lr.ph.i, %26
  %35 = getelementptr inbounds nuw i8, ptr %2, i64 96
  %36 = load ptr, ptr %35, align 8, !tbaa !73
  %.not14 = icmp eq ptr %36, null
  br i1 %.not14, label %39, label %37

37:                                               ; preds = %pmix_obj_run_destructors.exit
  %38 = getelementptr inbounds nuw i8, ptr %2, i64 56
  tail call void %36(ptr noundef nonnull %38, ptr noundef nonnull %2) #13
  br label %40

39:                                               ; preds = %pmix_obj_run_destructors.exit
  tail call void @free(ptr noundef nonnull %2) #13
  br label %40

40:                                               ; preds = %37, %39, %pmix_obj_update.exit
  ret void
}